; Function Attrs: mustprogress uwtable
define void @_ZN17LteRlcGraphDialog31on_otherDirectionButton_clickedEv(ptr noundef nonnull align 8 dereferenceable(268) %0) local_unnamed_addr #0 align 2 {
  %2 = getelementptr inbounds i8, ptr %0, i64 205
  %3 = load i8, ptr %2, align 1
  %.not.i = icmp eq i8 %3, 0
  %4 = zext i1 %.not.i to i8
  %5 = getelementptr inbounds i8, ptr %0, i64 192
  store i32 1, ptr %5, align 8
  store i8 %4, ptr %2, align 1
  tail call void @_ZN17LteRlcGraphDialog13completeGraphEb(ptr noundef nonnull align 8 dereferenceable(268) %0, i1 noundef zeroext true)
  ret void
}